BL51 BANKED LINKER/LOCATER V6.22                                                        04/09/2024  20:44:01  PAGE 1


BL51 BANKED LINKER/LOCATER V6.22, INVOKED BY:
C:\KEIL_C51V956\C51\BIN\BL51.EXE .\Objects\STARTUP.obj, .\Objects\ds1302.obj, .\Objects\main.obj, .\Objects\onewire.obj 
>> TO .\Objects\记录温度记录时间test PRINT (.\Listings\记录温度记录时间test.m51) RAMSIZE (256)


MEMORY MODEL: SMALL WITH FLOATING POINT ARITHMETIC


INPUT MODULES INCLUDED:
  .\Objects\STARTUP.obj (?C_STARTUP)
  .\Objects\ds1302.obj (DS1302)
  .\Objects\main.obj (MAIN)
  .\Objects\onewire.obj (ONEWIRE)
  C:\KEIL_C51V956\C51\LIB\C51FPS.LIB (?C?FPMUL)
  C:\KEIL_C51V956\C51\LIB\C51FPS.LIB (?C?FCAST)
  C:\KEIL_C51V956\C51\LIB\C51FPS.LIB (?C?CASTF)
  C:\KEIL_C51V956\C51\LIB\C51FPS.LIB (?C?FPGETOPN)
  C:\KEIL_C51V956\C51\LIB\C51S.LIB (?C_INIT)
  C:\KEIL_C51V956\C51\LIB\C51S.LIB (?C?IMUL)
  C:\KEIL_C51V956\C51\LIB\C51S.LIB (?C?UIDIV)
  C:\KEIL_C51V956\C51\LIB\C51S.LIB (?C?LNEG)


LINK MAP OF MODULE:  .\Objects\记录温度记录时间test (?C_STARTUP)


            TYPE    BASE      LENGTH    RELOCATION   SEGMENT NAME
            -----------------------------------------------------

            * * * * * * *   D A T A   M E M O R Y   * * * * * * *
            REG     0000H     0008H     ABSOLUTE     "REG BANK 0"
            DATA    0008H     0015H     UNIT         ?DT?DS1302
            DATA    001DH     0002H     UNIT         _DATA_GROUP_
                    001FH     0001H                  *** GAP ***
            BIT     0020H.0   0000H.1   UNIT         _BIT_GROUP_
                    0020H.1   0000H.7                *** GAP ***
            DATA    0021H     000DH     UNIT         ?DT?MAIN
            IDATA   002EH     0001H     UNIT         ?STACK

            * * * * * * *   C O D E   M E M O R Y   * * * * * * *
            CODE    0000H     0003H     ABSOLUTE     
                    0003H     0008H                  *** GAP ***
            CODE    000BH     0003H     ABSOLUTE     
            CODE    000EH     023AH     UNIT         ?C?LIB_CODE
            CODE    0248H     0113H     UNIT         ?PR?SHOWSMG?MAIN
            CODE    035BH     00BCH     UNIT         ?PR?SCANKEY?MAIN
            CODE    0417H     008CH     UNIT         ?C_C51STARTUP
            CODE    04A3H     0085H     UNIT         ?PR?READ_TEMP?ONEWIRE
            CODE    0528H     006EH     UNIT         ?PR?SHOWLED?MAIN
            CODE    0596H     0040H     UNIT         ?PR?SERVICETIMER?MAIN
            CODE    05D6H     0039H     UNIT         ?C_INITSEG
            CODE    060FH     0034H     UNIT         ?PR?_READ_DS1302_BYTE?DS1302
            CODE    0643H     0033H     UNIT         ?PR?_SELECTHC?MAIN
            CODE    0676H     002CH     UNIT         ?PR?MAIN?MAIN
            CODE    06A2H     0028H     UNIT         ?PR?_DELAYSMG?MAIN
            CODE    06CAH     0027H     UNIT         ?PR?INIT_DS18B20?ONEWIRE
            CODE    06F1H     0023H     UNIT         ?PR?WRITE_DATE?DS1302
            CODE    0714H     001EH     UNIT         ?PR?_DISPLAY_SMG?MAIN
BL51 BANKED LINKER/LOCATER V6.22                                                      04/09/2024  20:44:01  PAGE 2


            CODE    0732H     001EH     UNIT         ?PR?_WRITE_DS18B20?ONEWIRE
            CODE    0750H     001CH     UNIT         ?CO?MAIN
            CODE    076CH     001AH     UNIT         ?PR?_DELAY_ONEWIRE?ONEWIRE
            CODE    0786H     001AH     UNIT         ?PR?READ_DS18B20?ONEWIRE
            CODE    07A0H     0017H     UNIT         ?PR?_CTRLRELAY?MAIN
            CODE    07B7H     0016H     UNIT         ?PR?READ_DATE?DS1302
            CODE    07CDH     0014H     UNIT         ?PR?_WRITE_DS1302_BYTE?DS1302
            CODE    07E1H     0013H     UNIT         ?PR?_WRITE_DS1302?DS1302
            CODE    07F4H     0010H     UNIT         ?PR?INITTIMER?MAIN
            CODE    0804H     0010H     UNIT         ?PR?INITSYS?MAIN
            CODE    0814H     0010H     UNIT         ?PR?OFFSMG?MAIN
            CODE    0824H     0009H     UNIT         ?PR?SELECTLED?MAIN



OVERLAY MAP OF MODULE:   .\Objects\记录温度记录时间test (?C_STARTUP)


SEGMENT                                  BIT_GROUP          DATA_GROUP 
  +--> CALLED SEGMENT                 START    LENGTH     START    LENGTH
-------------------------------------------------------------------------
?C_C51STARTUP                         -----    -----      -----    -----
  +--> ?PR?MAIN?MAIN
  +--> ?C_INITSEG

?PR?MAIN?MAIN                         -----    -----      -----    -----
  +--> ?PR?INITSYS?MAIN
  +--> ?PR?INITTIMER?MAIN
  +--> ?PR?WRITE_DATE?DS1302
  +--> ?PR?READ_DATE?DS1302
  +--> ?PR?READ_TEMP?ONEWIRE
  +--> ?PR?SCANKEY?MAIN
  +--> ?PR?SHOWSMG?MAIN
  +--> ?PR?SHOWLED?MAIN

?PR?INITSYS?MAIN                      -----    -----      -----    -----
  +--> ?PR?_SELECTHC?MAIN

?PR?WRITE_DATE?DS1302                 -----    -----      -----    -----
  +--> ?PR?_WRITE_DS1302_BYTE?DS1302

?PR?_WRITE_DS1302_BYTE?DS1302         -----    -----      -----    -----
  +--> ?PR?_WRITE_DS1302?DS1302

?PR?READ_DATE?DS1302                  -----    -----      -----    -----
  +--> ?PR?_READ_DS1302_BYTE?DS1302

?PR?_READ_DS1302_BYTE?DS1302          -----    -----      -----    -----
  +--> ?PR?_WRITE_DS1302?DS1302

?PR?READ_TEMP?ONEWIRE                 -----    -----      001DH    0002H
  +--> ?PR?INIT_DS18B20?ONEWIRE
  +--> ?PR?_WRITE_DS18B20?ONEWIRE
  +--> ?PR?READ_DS18B20?ONEWIRE

?PR?INIT_DS18B20?ONEWIRE              0020H.0  0000H.1    -----    -----
  +--> ?PR?_DELAY_ONEWIRE?ONEWIRE
BL51 BANKED LINKER/LOCATER V6.22                                                      04/09/2024  20:44:01  PAGE 3



?PR?_WRITE_DS18B20?ONEWIRE            -----    -----      -----    -----
  +--> ?PR?_DELAY_ONEWIRE?ONEWIRE

?PR?READ_DS18B20?ONEWIRE              -----    -----      -----    -----
  +--> ?PR?_DELAY_ONEWIRE?ONEWIRE

?PR?SCANKEY?MAIN                      -----    -----      -----    -----
  +--> ?PR?_DELAYSMG?MAIN
  +--> ?PR?SHOWSMG?MAIN
  +--> ?PR?SHOWLED?MAIN

?PR?_DELAYSMG?MAIN                    -----    -----      -----    -----
  +--> ?PR?_DISPLAY_SMG?MAIN
  +--> ?CO?MAIN

?PR?_DISPLAY_SMG?MAIN                 -----    -----      -----    -----
  +--> ?PR?_SELECTHC?MAIN

?PR?SHOWSMG?MAIN                      -----    -----      -----    -----
  +--> ?PR?_DELAYSMG?MAIN
  +--> ?CO?MAIN
  +--> ?PR?READ_DATE?DS1302
  +--> ?PR?OFFSMG?MAIN

?PR?OFFSMG?MAIN                       -----    -----      -----    -----
  +--> ?PR?_SELECTHC?MAIN

?PR?SHOWLED?MAIN                      -----    -----      -----    -----
  +--> ?PR?SELECTLED?MAIN
  +--> ?PR?_SELECTHC?MAIN
  +--> ?PR?_CTRLRELAY?MAIN

?PR?SELECTLED?MAIN                    -----    -----      -----    -----
  +--> ?PR?_SELECTHC?MAIN

?PR?_CTRLRELAY?MAIN                   -----    -----      -----    -----
  +--> ?PR?_SELECTHC?MAIN



SYMBOL TABLE OF MODULE:  .\Objects\记录温度记录时间test (?C_STARTUP)

  VALUE           TYPE          NAME
  ----------------------------------

  -------         MODULE        ?C_STARTUP
  C:0417H         SEGMENT       ?C_C51STARTUP
  I:002EH         SEGMENT       ?STACK
  C:0000H         PUBLIC        ?C_STARTUP
  D:00E0H         SYMBOL        ACC
  D:00F0H         SYMBOL        B
  D:0083H         SYMBOL        DPH
  D:0082H         SYMBOL        DPL
  N:0000H         SYMBOL        IBPSTACK
  N:0100H         SYMBOL        IBPSTACKTOP
  N:0080H         SYMBOL        IDATALEN
BL51 BANKED LINKER/LOCATER V6.22                                                      04/09/2024  20:44:01  PAGE 4


  C:041AH         SYMBOL        IDATALOOP
  N:0000H         SYMBOL        PBPSTACK
  N:0100H         SYMBOL        PBPSTACKTOP
  N:0000H         SYMBOL        PDATALEN
  N:0000H         SYMBOL        PDATASTART
  N:0000H         SYMBOL        PPAGE
  N:0000H         SYMBOL        PPAGEENABLE
  D:00A0H         SYMBOL        PPAGE_SFR
  D:0081H         SYMBOL        SP
  C:0417H         SYMBOL        STARTUP1
  N:0000H         SYMBOL        XBPSTACK
  N:0000H         SYMBOL        XBPSTACKTOP
  N:0000H         SYMBOL        XDATALEN
  N:0000H         SYMBOL        XDATASTART
  C:0000H         LINE#         126
  C:0417H         LINE#         133
  C:0419H         LINE#         134
  C:041AH         LINE#         135
  C:041BH         LINE#         136
  C:041DH         LINE#         185
  C:0420H         LINE#         196
  -------         ENDMOD        ?C_STARTUP

  -------         MODULE        DS1302
  C:0000H         SYMBOL        _ICE_DUMMY_
  D:0080H         PUBLIC        P0
  D:0090H         PUBLIC        P1
  D:00A0H         PUBLIC        P2
  D:00B0H         PUBLIC        P3
  D:0008H         PUBLIC        Timer
  D:00C0H         PUBLIC        P4
  D:00C8H         PUBLIC        P5
  D:00E8H         PUBLIC        P6
  D:00F8H         PUBLIC        P7
  D:00A8H         PUBLIC        IE
  D:00B8H         PUBLIC        IP
  D:000FH         PUBLIC        read_addr
  C:07B7H         PUBLIC        read_date
  D:00D8H         PUBLIC        CCON
  D:0016H         PUBLIC        write_addr
  C:06F1H         PUBLIC        write_date
  D:0098H         PUBLIC        SCON
  D:0088H         PUBLIC        TCON
  C:060FH         PUBLIC        _Read_Ds1302_Byte
  B:00A0H.3       PUBLIC        SDA
  B:0090H.7       PUBLIC        SCK
  C:07CDH         PUBLIC        _Write_Ds1302_Byte
  C:07E1H         PUBLIC        _Write_Ds1302
  B:0090H.3       PUBLIC        RST
  D:00D0H         PUBLIC        PSW
  -------         PROC          _WRITE_DS1302
  D:0007H         SYMBOL        temp
  -------         DO            
  D:0006H         SYMBOL        i
  -------         ENDDO         
  C:07E1H         LINE#         13
  C:07E1H         LINE#         14
BL51 BANKED LINKER/LOCATER V6.22                                                      04/09/2024  20:44:01  PAGE 5


  C:07E1H         LINE#         16
  C:07E3H         LINE#         17
  C:07E3H         LINE#         18
  C:07E5H         LINE#         19
  C:07E9H         LINE#         20
  C:07EDH         LINE#         21
  C:07EFH         LINE#         22
  C:07F3H         LINE#         23
  -------         ENDPROC       _WRITE_DS1302
  -------         PROC          _WRITE_DS1302_BYTE
  D:0007H         SYMBOL        address
  D:0005H         SYMBOL        dat
  C:07CDH         LINE#         26
  C:07CDH         LINE#         27
  C:07CDH         LINE#         28
  C:07D0H         LINE#         29
  C:07D3H         LINE#         30
  C:07D6H         LINE#         31
  C:07D9H         LINE#         32
  C:07DEH         LINE#         33
  C:07E0H         LINE#         34
  -------         ENDPROC       _WRITE_DS1302_BYTE
  -------         PROC          _READ_DS1302_BYTE
  D:0007H         SYMBOL        address
  -------         DO            
  D:0007H         SYMBOL        i
  D:0005H         SYMBOL        temp
  -------         ENDDO         
  C:060FH         LINE#         37
  C:060FH         LINE#         38
  C:060FH         LINE#         39
  C:0611H         LINE#         40
  C:0614H         LINE#         41
  C:0617H         LINE#         42
  C:061AH         LINE#         43
  C:061DH         LINE#         44
  C:061FH         LINE#         45
  C:061FH         LINE#         46
  C:0621H         LINE#         47
  C:0625H         LINE#         48
  C:0628H         LINE#         49
  C:062BH         LINE#         50
  C:062DH         LINE#         51
  C:0631H         LINE#         52
  C:0634H         LINE#         53
  C:0637H         LINE#         54
  C:063AH         LINE#         55
  C:063DH         LINE#         56
  C:0640H         LINE#         57
  C:0642H         LINE#         58
  -------         ENDPROC       _READ_DS1302_BYTE
  -------         PROC          WRITE_DATE
  -------         DO            
  D:0004H         SYMBOL        n
  -------         ENDDO         
  C:06F1H         LINE#         59
  C:06F1H         LINE#         60
BL51 BANKED LINKER/LOCATER V6.22                                                      04/09/2024  20:44:01  PAGE 6


  C:06F1H         LINE#         62
  C:06F8H         LINE#         63
  C:06FAH         LINE#         64
  C:06FAH         LINE#         65
  C:0709H         LINE#         66
  C:070DH         LINE#         67
  -------         ENDPROC       WRITE_DATE
  -------         PROC          READ_DATE
  -------         DO            
  D:0004H         SYMBOL        n
  -------         ENDDO         
  C:07B7H         LINE#         69
  C:07B7H         LINE#         70
  C:07B7H         LINE#         72
  C:07B9H         LINE#         73
  C:07B9H         LINE#         74
  C:07C8H         LINE#         75
  C:07CCH         LINE#         76
  -------         ENDPROC       READ_DATE
  -------         ENDMOD        DS1302

  -------         MODULE        MAIN
  C:0000H         SYMBOL        _ICE_DUMMY_
  C:0762H         PUBLIC        SMG_Dotnumber
  B:0080H.2       PUBLIC        L3
  D:0080H         PUBLIC        P0
  D:0021H         PUBLIC        count_t
  D:0090H         PUBLIC        P1
  D:00A0H         PUBLIC        P2
  B:00B0H.3       PUBLIC        R1
  D:00B0H         PUBLIC        P3
  B:00B0H.2       PUBLIC        R2
  D:00C0H         PUBLIC        P4
  D:00C8H         PUBLIC        P5
  B:00A8H.7       PUBLIC        EA
  D:00E8H         PUBLIC        P6
  D:0023H         PUBLIC        S17key
  D:00F8H         PUBLIC        P7
  D:00A8H         PUBLIC        IE
  D:00B8H         PUBLIC        IP
  C:0528H         PUBLIC        showLED
  C:07F4H         PUBLIC        InitTimer
  B:0080H.4       PUBLIC        relay
  D:00D8H         PUBLIC        CCON
  C:0814H         PUBLIC        offSMG
  B:0080H.6       PUBLIC        buzzer
  C:0676H         PUBLIC        main
  C:0248H         PUBLIC        showSMG
  D:0098H         PUBLIC        SCON
  D:0024H         PUBLIC        count_5s
  D:0089H         PUBLIC        TMOD
  D:0088H         PUBLIC        TCON
  C:07A0H         PUBLIC        _ctrlRelay
  D:0025H         PUBLIC        temp
  D:0027H         PUBLIC        zhengdian
  C:0714H         PUBLIC        _display_SMG
  B:00A8H.1       PUBLIC        ET0
BL51 BANKED LINKER/LOCATER V6.22                                                      04/09/2024  20:44:01  PAGE 7


  D:0028H         PUBLIC        L3key
  D:0029H         PUBLIC        relayKey
  D:008CH         PUBLIC        TH0
  D:008AH         PUBLIC        TL0
  C:035BH         PUBLIC        scanKey
  C:0750H         PUBLIC        SMG_number
  B:0088H.4       PUBLIC        TR0
  C:0596H         PUBLIC        ServiceTimer
  C:0824H         PUBLIC        selectLED
  D:002AH         PUBLIC        LED_mode
  D:002BH         PUBLIC        temp1
  C:0643H         PUBLIC        _SelectHC
  D:002DH         PUBLIC        SMG_mode
  B:00B0H.5       PUBLIC        C1
  B:00B0H.4       PUBLIC        C2
  C:0804H         PUBLIC        Initsys
  C:06BFH         PUBLIC        _delaySMG
  D:00D0H         PUBLIC        PSW
  B:0080H.0       PUBLIC        L1
  B:0080H.1       PUBLIC        L2
  -------         PROC          MAIN
  C:0676H         LINE#         46
  C:0676H         LINE#         47
  C:0676H         LINE#         48
  C:0679H         LINE#         49
  C:067CH         LINE#         50
  C:067FH         LINE#         51
  C:067FH         LINE#         52
  C:067FH         LINE#         53
  C:0682H         LINE#         54
  C:0689H         LINE#         55
  C:0691H         LINE#         56
  C:0691H         LINE#         57
  C:0694H         LINE#         58
  C:0697H         LINE#         59
  C:0697H         LINE#         60
  C:069AH         LINE#         61
  C:069DH         LINE#         62
  C:06A0H         LINE#         63
  -------         ENDPROC       MAIN
  -------         PROC          INITTIMER
  C:07F4H         LINE#         65
  C:07F4H         LINE#         66
  C:07F4H         LINE#         67
  C:07F7H         LINE#         68
  C:07FAH         LINE#         69
  C:07FDH         LINE#         70
  C:07FFH         LINE#         71
  C:0801H         LINE#         72
  C:0803H         LINE#         73
  -------         ENDPROC       INITTIMER
  -------         PROC          SERVICETIMER
  C:0596H         LINE#         76
  C:059AH         LINE#         78
  C:059DH         LINE#         79
  C:05A0H         LINE#         81
  C:05A5H         LINE#         82
BL51 BANKED LINKER/LOCATER V6.22                                                      04/09/2024  20:44:01  PAGE 8


  C:05A5H         LINE#         83
  C:05A8H         LINE#         84
  C:05A8H         LINE#         85
  C:05A8H         LINE#         86
  C:05ABH         LINE#         87
  C:05ABH         LINE#         88
  C:05ABH         LINE#         89
  C:05B0H         LINE#         90
  C:05B0H         LINE#         91
  C:05B8H         LINE#         92
  C:05BEH         LINE#         93
  C:05BEH         LINE#         94
  C:05C3H         LINE#         95
  C:05C3H         LINE#         96
  C:05C6H         LINE#         97
  C:05C8H         LINE#         99
  C:05C8H         LINE#         100
  C:05CBH         LINE#         101
  C:05CBH         LINE#         102
  C:05D1H         LINE#         103
  C:05D1H         LINE#         104
  C:05D1H         LINE#         106
  -------         ENDPROC       SERVICETIMER
  -------         PROC          _SELECTHC
  D:0007H         SYMBOL        channel
  C:0643H         LINE#         108
  C:0643H         LINE#         109
  C:0643H         LINE#         110
  C:0652H         LINE#         111
  C:0652H         LINE#         112
  C:0652H         LINE#         113
  C:065AH         LINE#         114
  C:065BH         LINE#         115
  C:065BH         LINE#         116
  C:0663H         LINE#         117
  C:0664H         LINE#         118
  C:0664H         LINE#         119
  C:066CH         LINE#         120
  C:066DH         LINE#         121
  C:066DH         LINE#         122
  C:0675H         LINE#         123
  C:0675H         LINE#         124
  C:0675H         LINE#         125
  -------         ENDPROC       _SELECTHC
  -------         PROC          _CTRLRELAY
  D:0006H         SYMBOL        relayKey
  C:07A0H         LINE#         126
  C:07A2H         LINE#         127
  C:07A2H         LINE#         128
  C:07A7H         LINE#         129
  C:07AAH         LINE#         130
  C:07AAH         LINE#         131
  C:07ACH         LINE#         132
  C:07AEH         LINE#         134
  C:07AFH         LINE#         135
  C:07B2H         LINE#         136
  C:07B2H         LINE#         137
BL51 BANKED LINKER/LOCATER V6.22                                                      04/09/2024  20:44:01  PAGE 9


  C:07B4H         LINE#         138
  C:07B6H         LINE#         140
  C:07B6H         LINE#         141
  -------         ENDPROC       _CTRLRELAY
  -------         PROC          INITSYS
  C:0804H         LINE#         142
  C:0804H         LINE#         143
  C:0804H         LINE#         144
  C:0809H         LINE#         145
  C:080CH         LINE#         146
  C:0810H         LINE#         147
  C:0813H         LINE#         148
  -------         ENDPROC       INITSYS
  -------         PROC          _DISPLAY_SMG
  D:0006H         SYMBOL        pos
  D:0005H         SYMBOL        value
  C:0714H         LINE#         149
  C:0716H         LINE#         150
  C:0716H         LINE#         152
  C:071BH         LINE#         153
  C:072AH         LINE#         154
  C:072FH         LINE#         155
  C:0731H         LINE#         156
  -------         ENDPROC       _DISPLAY_SMG
  -------         PROC          OFFSMG
  C:0814H         LINE#         157
  C:0814H         LINE#         158
  C:0814H         LINE#         159
  C:0819H         LINE#         160
  C:081CH         LINE#         161
  C:0820H         LINE#         162
  C:0823H         LINE#         163
  -------         ENDPROC       OFFSMG
  C:06A2H         SYMBOL        L?0090
  C:06B6H         SYMBOL        L?0091
  C:06B8H         SYMBOL        L?0092
  C:06BBH         SYMBOL        L?0093
  -------         PROC          L?0089
  -------         ENDPROC       L?0089
  C:06A2H         SYMBOL        L?0090
  C:06B6H         SYMBOL        L?0091
  C:06B8H         SYMBOL        L?0092
  C:06BBH         SYMBOL        L?0093
  -------         PROC          _DELAYSMG
  D:0006H         SYMBOL        t
  C:06BFH         LINE#         164
  C:06BFH         LINE#         165
  C:06BFH         LINE#         166
  C:06C9H         LINE#         167
  -------         ENDPROC       _DELAYSMG
  -------         PROC          SHOWSMG
  C:0248H         LINE#         168
  C:0248H         LINE#         169
  C:0248H         LINE#         170
  C:024EH         LINE#         171
  C:024EH         LINE#         172
  C:024EH         LINE#         173
BL51 BANKED LINKER/LOCATER V6.22                                                      04/09/2024  20:44:01  PAGE 10


  C:024EH         LINE#         174
  C:024EH         LINE#         175
  C:0251H         LINE#         176
  C:0269H         LINE#         177
  C:026CH         LINE#         178
  C:0293H         LINE#         179
  C:0296H         LINE#         180
  C:029AH         LINE#         181
  C:029AH         LINE#         182
  C:029AH         LINE#         183
  C:029DH         LINE#         184
  C:02A3H         LINE#         185
  C:02A3H         LINE#         186
  C:02A6H         LINE#         187
  C:02AAH         LINE#         188
  C:02AAH         LINE#         189
  C:02AAH         LINE#         190
  C:02AAH         LINE#         191
  C:02AAH         LINE#         192
  C:02ADH         LINE#         193
  C:02B6H         LINE#         194
  C:02B9H         LINE#         195
  C:02C1H         LINE#         196
  C:02C4H         LINE#         198
  C:02C8H         LINE#         199
  C:02CBH         LINE#         201
  C:02D4H         LINE#         202
  C:02D7H         LINE#         203
  C:02D9H         LINE#         204
  C:02D9H         LINE#         205
  C:02D9H         LINE#         207
  C:02DBH         LINE#         208
  C:02E1H         LINE#         209
  C:02E1H         LINE#         210
  C:02E1H         LINE#         211
  C:02E1H         LINE#         212
  C:02E1H         LINE#         213
  C:02E4H         LINE#         214
  C:02EDH         LINE#         215
  C:02F0H         LINE#         216
  C:02F8H         LINE#         217
  C:02FBH         LINE#         219
  C:02FFH         LINE#         220
  C:0302H         LINE#         222
  C:030BH         LINE#         223
  C:030EH         LINE#         224
  C:0312H         LINE#         225
  C:0312H         LINE#         226
  C:0312H         LINE#         227
  C:0312H         LINE#         228
  C:0314H         LINE#         229
  C:031AH         LINE#         230
  C:031AH         LINE#         231
  C:031AH         LINE#         232
  C:031AH         LINE#         233
  C:031AH         LINE#         234
  C:031DH         LINE#         236
BL51 BANKED LINKER/LOCATER V6.22                                                      04/09/2024  20:44:01  PAGE 11


  C:0337H         LINE#         237
  C:033AH         LINE#         238
  C:0354H         LINE#         239
  C:0357H         LINE#         240
  C:035AH         LINE#         241
  C:035AH         LINE#         242
  -------         ENDPROC       SHOWSMG
  -------         PROC          SCANKEY
  C:035BH         LINE#         244
  C:035BH         LINE#         245
  C:035BH         LINE#         246
  C:035DH         LINE#         247
  C:035FH         LINE#         248
  C:0363H         LINE#         249
  C:0366H         LINE#         250
  C:0366H         LINE#         251
  C:0369H         LINE#         252
  C:036CH         LINE#         253
  C:036CH         LINE#         254
  C:0371H         LINE#         255
  C:0371H         LINE#         256
  C:0374H         LINE#         257
  C:0376H         LINE#         259
  C:0376H         LINE#         260
  C:0378H         LINE#         261
  C:0378H         LINE#         262
  C:0378H         LINE#         263
  C:037BH         LINE#         264
  C:037BH         LINE#         265
  C:037EH         LINE#         266
  C:0381H         LINE#         267
  C:0383H         LINE#         268
  C:0383H         LINE#         269
  C:0386H         LINE#         270
  C:0386H         LINE#         271
  C:0389H         LINE#         272
  C:038CH         LINE#         273
  C:038CH         LINE#         274
  C:0391H         LINE#         275
  C:0391H         LINE#         276
  C:0399H         LINE#         277
  C:0399H         LINE#         278
  C:039EH         LINE#         279
  C:03A0H         LINE#         281
  C:03A0H         LINE#         282
  C:03A8H         LINE#         283
  C:03A8H         LINE#         284
  C:03A8H         LINE#         285
  C:03A8H         LINE#         286
  C:03ABH         LINE#         287
  C:03ABH         LINE#         288
  C:03AEH         LINE#         289
  C:03B1H         LINE#         290
  C:03B3H         LINE#         291
  C:03B3H         LINE#         293
  C:03B5H         LINE#         294
  C:03B7H         LINE#         295
BL51 BANKED LINKER/LOCATER V6.22                                                      04/09/2024  20:44:01  PAGE 12


  C:03BBH         LINE#         296
  C:03BEH         LINE#         297
  C:03BEH         LINE#         298
  C:03C1H         LINE#         299
  C:03C4H         LINE#         300
  C:03C4H         LINE#         301
  C:03C8H         LINE#         302
  C:03C8H         LINE#         303
  C:03CBH         LINE#         304
  C:03CDH         LINE#         306
  C:03CDH         LINE#         307
  C:03D0H         LINE#         308
  C:03D0H         LINE#         309
  C:03D0H         LINE#         310
  C:03D3H         LINE#         311
  C:03D3H         LINE#         312
  C:03D6H         LINE#         313
  C:03D9H         LINE#         314
  C:03DBH         LINE#         315
  C:03DBH         LINE#         316
  C:03DEH         LINE#         317
  C:03DEH         LINE#         318
  C:03E1H         LINE#         319
  C:03E4H         LINE#         320
  C:03E4H         LINE#         321
  C:03E9H         LINE#         322
  C:03E9H         LINE#         323
  C:03ECH         LINE#         324
  C:03ECH         LINE#         325
  C:03F1H         LINE#         326
  C:03F1H         LINE#         327
  C:03F9H         LINE#         328
  C:03F9H         LINE#         329
  C:03FEH         LINE#         330
  C:0400H         LINE#         332
  C:0400H         LINE#         333
  C:0408H         LINE#         334
  C:0408H         LINE#         335
  C:0408H         LINE#         336
  C:0408H         LINE#         337
  C:040BH         LINE#         338
  C:040BH         LINE#         339
  C:040EH         LINE#         340
  C:0411H         LINE#         341
  C:0413H         LINE#         342
  C:0416H         LINE#         343
  C:0416H         LINE#         344
  -------         ENDPROC       SCANKEY
  -------         PROC          SELECTLED
  C:0824H         LINE#         345
  C:0824H         LINE#         346
  C:0824H         LINE#         348
  C:0829H         LINE#         349
  C:082CH         LINE#         351
  -------         ENDPROC       SELECTLED
  -------         PROC          SHOWLED
  C:0528H         LINE#         352
BL51 BANKED LINKER/LOCATER V6.22                                                      04/09/2024  20:44:01  PAGE 13


  C:0528H         LINE#         353
  C:0528H         LINE#         354
  C:052BH         LINE#         355
  C:0530H         LINE#         356
  C:0530H         LINE#         357
  C:0535H         LINE#         358
  C:0537H         LINE#         359
  C:0537H         LINE#         360
  C:053BH         LINE#         361
  C:053BH         LINE#         362
  C:0540H         LINE#         363
  C:0542H         LINE#         364
  C:0558H         LINE#         365
  C:0558H         LINE#         366
  C:0558H         LINE#         367
  C:0558H         LINE#         368
  C:0558H         LINE#         369
  C:0558H         LINE#         370
  C:0558H         LINE#         371
  C:055AH         LINE#         381
  C:0560H         LINE#         382
  C:0560H         LINE#         383
  C:0567H         LINE#         384
  C:0567H         LINE#         385
  C:056AH         LINE#         386
  C:0570H         LINE#         387
  C:0575H         LINE#         388
  C:0578H         LINE#         389
  C:057BH         LINE#         390
  C:057DH         LINE#         392
  C:057DH         LINE#         393
  C:0580H         LINE#         394
  C:0582H         LINE#         395
  C:0587H         LINE#         396
  C:058AH         LINE#         397
  C:058DH         LINE#         398
  C:058DH         LINE#         400
  C:058DH         LINE#         401
  C:0592H         LINE#         402
  C:0595H         LINE#         404
  -------         ENDPROC       SHOWLED
  -------         ENDMOD        MAIN

  -------         MODULE        ONEWIRE
  C:0000H         SYMBOL        _ICE_DUMMY_
  D:0080H         PUBLIC        P0
  D:0090H         PUBLIC        P1
  D:00A0H         PUBLIC        P2
  D:00B0H         PUBLIC        P3
  D:00C0H         PUBLIC        P4
  C:0786H         PUBLIC        Read_DS18B20
  D:00C8H         PUBLIC        P5
  D:00E8H         PUBLIC        P6
  D:00F8H         PUBLIC        P7
  D:00A8H         PUBLIC        IE
  C:0770H         PUBLIC        _Delay_OneWire
  C:0732H         PUBLIC        _Write_DS18B20
BL51 BANKED LINKER/LOCATER V6.22                                                      04/09/2024  20:44:01  PAGE 14


  B:0090H.4       PUBLIC        DQ
  C:04A3H         PUBLIC        read_Temp
  D:00B8H         PUBLIC        IP
  C:06CAH         PUBLIC        init_ds18b20
  D:00D8H         PUBLIC        CCON
  D:0098H         PUBLIC        SCON
  D:0088H         PUBLIC        TCON
  D:00D0H         PUBLIC        PSW
  C:076CH         SYMBOL        L?0021
  -------         PROC          L?0020
  -------         ENDPROC       L?0020
  C:076CH         SYMBOL        L?0021
  -------         PROC          _DELAY_ONEWIRE
  D:0006H         SYMBOL        t
  -------         DO            
  D:0005H         SYMBOL        i
  -------         ENDDO         
  C:0770H         LINE#         10
  C:0770H         LINE#         11
  C:0770H         LINE#         13
  C:077AH         LINE#         14
  C:0785H         LINE#         15
  C:0785H         LINE#         16
  -------         ENDPROC       _DELAY_ONEWIRE
  -------         PROC          _WRITE_DS18B20
  D:0001H         SYMBOL        dat
  -------         DO            
  D:0003H         SYMBOL        i
  -------         ENDDO         
  C:0732H         LINE#         19
  C:0734H         LINE#         20
  C:0734H         LINE#         22
  C:0736H         LINE#         23
  C:0736H         LINE#         24
  C:0738H         LINE#         25
  C:073CH         LINE#         26
  C:073FH         LINE#         27
  C:0741H         LINE#         28
  C:0745H         LINE#         29
  C:0749H         LINE#         30
  -------         ENDPROC       _WRITE_DS18B20
  -------         PROC          READ_DS18B20
  -------         DO            
  D:0003H         SYMBOL        i
  D:0004H         SYMBOL        dat
  -------         ENDDO         
  C:0786H         LINE#         34
  C:0786H         LINE#         35
  C:0786H         LINE#         39
  C:0788H         LINE#         40
  C:0788H         LINE#         41
  C:078AH         LINE#         42
  C:078EH         LINE#         43
  C:0790H         LINE#         44
  C:0793H         LINE#         45
  C:0793H         LINE#         46
  C:0796H         LINE#         47
BL51 BANKED LINKER/LOCATER V6.22                                                      04/09/2024  20:44:01  PAGE 15


  C:0796H         LINE#         48
  C:0799H         LINE#         49
  C:079DH         LINE#         50
  C:079FH         LINE#         51
  -------         ENDPROC       READ_DS18B20
  -------         PROC          INIT_DS18B20
  -------         DO            
  B:0020H.0       SYMBOL        initflag
  -------         ENDDO         
  C:06CAH         LINE#         54
  C:06CAH         LINE#         55
  C:06CAH         LINE#         56
  C:06CCH         LINE#         58
  C:06CEH         LINE#         59
  C:06D5H         LINE#         60
  C:06D7H         LINE#         61
  C:06DEH         LINE#         62
  C:06E0H         LINE#         63
  C:06E7H         LINE#         64
  C:06EBH         LINE#         65
  C:06EEH         LINE#         67
  C:06F0H         LINE#         68
  -------         ENDPROC       INIT_DS18B20
  -------         PROC          READ_TEMP
  -------         DO            
  D:001DH         SYMBOL        temp
  D:0001H         SYMBOL        LSB
  D:0004H         SYMBOL        MSB
  -------         ENDDO         
  C:04A3H         LINE#         70
  C:04A3H         LINE#         71
  C:04A3H         LINE#         75
  C:04A6H         LINE#         76
  C:04ABH         LINE#         77
  C:04B0H         LINE#         79
  C:04B3H         LINE#         80
  C:04B8H         LINE#         81
  C:04BDH         LINE#         82
  C:04C2H         LINE#         83
  C:04C7H         LINE#         84
  C:04CAH         LINE#         85
  C:04CFH         LINE#         86
  C:04D5H         LINE#         87
  C:04DCH         LINE#         88
  C:04DFH         LINE#         89
  C:04E5H         LINE#         90
  C:04E5H         LINE#         91
  C:04F7H         LINE#         92
  C:0505H         LINE#         93
  C:0524H         LINE#         94
  C:0527H         LINE#         95
  C:0527H         LINE#         98
  -------         ENDPROC       READ_TEMP
  -------         ENDMOD        ONEWIRE

  -------         MODULE        ?C?FPMUL
  C:000EH         PUBLIC        ?C?FPMUL
BL51 BANKED LINKER/LOCATER V6.22                                                      04/09/2024  20:44:01  PAGE 16


  -------         ENDMOD        ?C?FPMUL

  -------         MODULE        ?C?FCAST
  C:011EH         PUBLIC        ?C?FCASTC
  C:0119H         PUBLIC        ?C?FCASTI
  C:0114H         PUBLIC        ?C?FCASTL
  -------         ENDMOD        ?C?FCAST

  -------         MODULE        ?C?CASTF
  C:0152H         PUBLIC        ?C?CASTF
  -------         ENDMOD        ?C?CASTF

  -------         MODULE        ?C?IMUL
  C:01D3H         PUBLIC        ?C?IMUL
  -------         ENDMOD        ?C?IMUL

  -------         MODULE        ?C?UIDIV
  C:01E5H         PUBLIC        ?C?UIDIV
  -------         ENDMOD        ?C?UIDIV

  -------         MODULE        ?C?LNEG
  C:023AH         PUBLIC        ?C?LNEG
  -------         ENDMOD        ?C?LNEG

Program Size: data=45.1 xdata=0 code=2085
LINK/LOCATE RUN COMPLETE.  0 WARNING(S),  0 ERROR(S)
